target datalayout = "e-m:e-p270:32:32-p271:32:32-p272:64:64-i64:64-i128:128-f80:128-n8:16:32:64-S128"
target triple = "x86_64-pc-linux-gnu"

; Function Attrs: mustprogress nounwind uwtable
define linkonce_odr hidden noundef ptr @_ZN4llvm16cast_convert_valINS_7GSelectEPNS_12MachineInstrES3_E4doitEPKS2_(ptr noundef %0) #1 comdat align 2 {
  %2 = alloca ptr, align 8
  store ptr %0, ptr %2, align 8
  %3 = load ptr, ptr %2, align 8
  ret ptr %3
}

; Function Attrs: mustprogress nounwind uwtable
define linkonce_odr hidden noundef ptr @_ZN4llvm8CastInfoINS_7GSelectEPNS_12MachineInstrEvE6doCastERKS3_(ptr noundef nonnull align 8 dereferenceable(8) %0) #1 comdat align 2 {
  %2 = alloca ptr, align 8
  store ptr %0, ptr %2, align 8
  %3 = load ptr, ptr %2, align 8
  %4 = load ptr, ptr %3, align 8
  %5 = call noundef ptr @_ZN4llvm16cast_convert_valINS_7GSelectEPNS_12MachineInstrES3_E4doitEPKS2_(ptr noundef %4)
  ret ptr %5
}

; Function Attrs: mustprogress nounwind uwtable
define linkonce_odr hidden noundef ptr @_ZN4llvm4castINS_7GSelectENS_12MachineInstrEEEDcPT0_(ptr noundef %0) #1 comdat {
  %2 = alloca ptr, align 8
  store ptr %0, ptr %2, align 8
  %3 = call noundef ptr @_ZN4llvm8CastInfoINS_7GSelectEPNS_12MachineInstrEvE6doCastERKS3_(ptr noundef nonnull align 8 dereferenceable(8) %2)
  ret ptr %3
}

; Function Attrs: mustprogress nounwind uwtable
define dso_local noundef zeroext i1 @_ZN4llvm14CombinerHelper11matchSelectERNS_12MachineInstrERSt8functionIFvRNS_16MachineIRBuilderEEE(ptr noundef nonnull align 8 dereferenceable(72) %0, ptr noundef nonnull align 8 dereferenceable(70) %1, ptr noundef nonnull align 8 dereferenceable(32) %2) #1 align 2 {
  %4 = alloca i1, align 1
  %5 = alloca ptr, align 8
  %6 = alloca ptr, align 8
  %7 = alloca ptr, align 8
  %8 = alloca ptr, align 8
  store ptr %0, ptr %5, align 8
  store ptr %1, ptr %6, align 8
  store ptr %2, ptr %7, align 8
  %9 = load ptr, ptr %5, align 8
  %10 = load ptr, ptr %6, align 8
  %11 = call noundef ptr @_ZN4llvm4castINS_7GSelectENS_12MachineInstrEEEDcPT0_(ptr noundef %10)
  store ptr %11, ptr %8, align 8
  %12 = load ptr, ptr %8, align 8
  %13 = load ptr, ptr %7, align 8
  %14 = call noundef zeroext i1 @_ZN4llvm14CombinerHelper24tryFoldSelectOfConstantsEPNS_7GSelectERSt8functionIFvRNS_16MachineIRBuilderEEE(ptr noundef nonnull align 8 dereferenceable(72) %9, ptr noundef %12, ptr noundef nonnull align 8 dereferenceable(32) %13)
  br i1 %14, label %15, label %16

15:                                               ; preds = %3
  store i1 true, ptr %4, align 1
  br label %22

16:                                               ; preds = %3
  %17 = load ptr, ptr %8, align 8
  %18 = load ptr, ptr %7, align 8
  %19 = call noundef zeroext i1 @_ZN4llvm14CombinerHelper24tryFoldBoolSelectToLogicEPNS_7GSelectERSt8functionIFvRNS_16MachineIRBuilderEEE(ptr noundef nonnull align 8 dereferenceable(72) %9, ptr noundef %17, ptr noundef nonnull align 8 dereferenceable(32) %18)
  br i1 %19, label %20, label %21

20:                                               ; preds = %16
  store i1 true, ptr %4, align 1
  br label %22

21:                                               ; preds = %16
  store i1 false, ptr %4, align 1
  br label %22

22:                                               ; preds = %21, %20, %15
  %23 = load i1, ptr %4, align 1
  ret i1 %23
}