; Function Attrs: mustprogress nounwind uwtable
define dso_local noundef zeroext i1 @_ZN4llvm14CombinerHelper11matchSelectERNS_12MachineInstrERSt8functionIFvRNS_16MachineIRBuilderEEE(ptr noundef nonnull align 8 dereferenceable(72) %0, ptr noundef nonnull align 8 dereferenceable(70) %1, ptr noundef nonnull align 8 dereferenceable(32) %2) local_unnamed_addr #0 align 2 {
  %4 = tail call noundef zeroext i1 @_ZN4llvm14CombinerHelper24tryFoldSelectOfConstantsEPNS_7GSelectERSt8functionIFvRNS_16MachineIRBuilderEEE(ptr noundef nonnull align 8 dereferenceable(72) %0, ptr noundef nonnull %1, ptr noundef nonnull align 8 dereferenceable(32) %2)
  br i1 %4, label %7, label %5

5:                                                ; preds = %3
  %6 = tail call noundef zeroext i1 @_ZN4llvm14CombinerHelper24tryFoldBoolSelectToLogicEPNS_7GSelectERSt8functionIFvRNS_16MachineIRBuilderEEE(ptr noundef nonnull align 8 dereferenceable(72) %0, ptr noundef nonnull %1, ptr noundef nonnull align 8 dereferenceable(32) %2)
  br label %7

7:                                                ; preds = %5, %3
  %.0 = phi i1 [ true, %3 ], [ %6, %5 ]
  ret i1 %.0
}